target datalayout = "e-m:e-p270:32:32-p271:32:32-p272:64:64-i64:64-i128:128-f80:128-n8:16:32:64-S128"
target triple = "x86_64-pc-linux-gnu"

%struct.ExplainState = type { ptr, i8, i8, i8, i8, i8, i8, i8, i8, i8, i8, i32, i32, i32, ptr, ptr, ptr, ptr, ptr, ptr, i8, i32, ptr }

; Function Attrs: nounwind uwtable
define dso_local void @ExplainSeparatePlans(ptr noundef %0) #0 {
  %2 = alloca ptr, align 8
  store ptr %0, ptr %2, align 8
  %3 = load ptr, ptr %2, align 8
  %4 = getelementptr inbounds nuw %struct.ExplainState, ptr %3, i32 0, i32 12
  %5 = load i32, ptr %4, align 8
  switch i32 %5, label %11 [
    i32 0, label %6
    i32 1, label %10
    i32 2, label %10
    i32 3, label %10
  ]

6:                                                ; preds = %1
  %7 = load ptr, ptr %2, align 8
  %8 = getelementptr inbounds nuw %struct.ExplainState, ptr %7, i32 0, i32 0
  %9 = load ptr, ptr %8, align 8
  call void @appendStringInfoChar(ptr noundef %9, i8 noundef signext 10)
  br label %11

10:                                               ; preds = %1, %1, %1
  br label %11

11:                                               ; preds = %1, %10, %6
  ret void
}