; Function Attrs: nounwind uwtable
define dso_local void @ExplainSeparatePlans(ptr noundef readonly captures(none) %0) local_unnamed_addr #0 {
  %2 = getelementptr inbounds nuw i8, ptr %0, i64 24
  %3 = load i32, ptr %2, align 8
  %cond = icmp eq i32 %3, 0
  br i1 %cond, label %4, label %6

4:                                                ; preds = %1
  %5 = load ptr, ptr %0, align 8
  tail call void @appendStringInfoChar(ptr noundef %5, i8 noundef signext 10) #13
  br label %6

6:                                                ; preds = %1, %4
  ret void
}